; Function Attrs: nounwind uwtable
define ptr @l_Array_foldlMUnsafe_fold___at_Lean_Elab_Modifiers_filterAttrs___spec__1(ptr noundef %0, ptr noundef readonly captures(none) %1, i64 noundef %2, i64 noundef %3, ptr noundef %4) local_unnamed_addr #0 {
  %.not53 = icmp eq i64 %2, %3
  br i1 %.not53, label %.._crit_edge_crit_edge, label %.lr.ph

.._crit_edge_crit_edge:                           ; preds = %5
  %.pre = ptrtoint ptr %0 to i64
  %.pre56 = and i64 %.pre, 1
  br label %._crit_edge

.lr.ph:                                           ; preds = %5
  %6 = getelementptr inbounds nuw i8, ptr %1, i64 24
  %7 = ptrtoint ptr %0 to i64
  %8 = and i64 %7, 1
  %.not50 = icmp eq i64 %8, 0
  br label %9

9:                                                ; preds = %.lr.ph, %lean_dec.exit31
  %.02555 = phi i64 [ %2, %.lr.ph ], [ %42, %lean_dec.exit31 ]
  %.02754 = phi ptr [ %4, %.lr.ph ], [ %.229, %lean_dec.exit31 ]
  %10 = getelementptr inbounds nuw [0 x ptr], ptr %6, i64 0, i64 %.02555
  %11 = load ptr, ptr %10, align 8, !tbaa !9
  %12 = ptrtoint ptr %11 to i64
  %13 = and i64 %12, 1
  %.not.i37 = icmp eq i64 %13, 0
  br i1 %.not.i37, label %14, label %lean_array_uget.exit

14:                                               ; preds = %9
  %.val.i.i = load i32, ptr %11, align 4, !tbaa !4
  %15 = icmp sgt i32 %.val.i.i, 0
  br i1 %15, label %16, label %18, !prof !13

16:                                               ; preds = %14
  %17 = add nuw i32 %.val.i.i, 1
  store i32 %17, ptr %11, align 4, !tbaa !4
  br label %lean_array_uget.exit

18:                                               ; preds = %14
  %.not.i.i = icmp eq i32 %.val.i.i, 0
  br i1 %.not.i.i, label %lean_array_uget.exit, label %19

19:                                               ; preds = %18
  tail call void @lean_inc_ref_cold(ptr noundef nonnull %11) #7
  br label %lean_array_uget.exit

lean_array_uget.exit:                             ; preds = %9, %16, %18, %19
  br i1 %.not50, label %20, label %lean_inc.exit30

20:                                               ; preds = %lean_array_uget.exit
  %.val.i = load i32, ptr %0, align 4, !tbaa !4
  %21 = icmp sgt i32 %.val.i, 0
  br i1 %21, label %22, label %24, !prof !13

22:                                               ; preds = %20
  %23 = add nuw i32 %.val.i, 1
  store i32 %23, ptr %0, align 4, !tbaa !4
  br label %lean_inc.exit30

24:                                               ; preds = %20
  %.not.i38 = icmp eq i32 %.val.i, 0
  br i1 %.not.i38, label %lean_inc.exit30, label %25

25:                                               ; preds = %24
  tail call void @lean_inc_ref_cold(ptr noundef nonnull %0) #7
  br label %lean_inc.exit30

lean_inc.exit30:                                  ; preds = %25, %24, %22, %lean_array_uget.exit
  br i1 %.not.i37, label %26, label %lean_inc.exit

26:                                               ; preds = %lean_inc.exit30
  %.val.i39 = load i32, ptr %11, align 4, !tbaa !4
  %27 = icmp sgt i32 %.val.i39, 0
  br i1 %27, label %28, label %30, !prof !13

28:                                               ; preds = %26
  %29 = add nuw i32 %.val.i39, 1
  store i32 %29, ptr %11, align 4, !tbaa !4
  br label %lean_inc.exit

30:                                               ; preds = %26
  %.not.i40 = icmp eq i32 %.val.i39, 0
  br i1 %.not.i40, label %lean_inc.exit, label %31

31:                                               ; preds = %30
  tail call void @lean_inc_ref_cold(ptr noundef nonnull %11) #7
  br label %lean_inc.exit

lean_inc.exit:                                    ; preds = %31, %30, %28, %lean_inc.exit30
  %32 = tail call ptr @lean_apply_1(ptr noundef %0, ptr noundef %11) #7
  %33 = ptrtoint ptr %32 to i64
  %34 = and i64 %33, 1
  %.not52 = icmp eq i64 %34, 0
  br i1 %.not52, label %35, label %lean_dec.exit32

35:                                               ; preds = %lean_inc.exit
  %36 = load i32, ptr %32, align 4, !tbaa !4
  %37 = icmp sgt i32 %36, 1
  br i1 %37, label %38, label %40, !prof !13

38:                                               ; preds = %35
  %39 = add nsw i32 %36, -1
  store i32 %39, ptr %32, align 4, !tbaa !4
  br label %lean_dec.exit32

40:                                               ; preds = %35
  %.not.i = icmp eq i32 %36, 0
  br i1 %.not.i, label %lean_dec.exit32, label %41

41:                                               ; preds = %40
  tail call void @lean_dec_ref_cold(ptr noundef nonnull %32) #7
  br label %lean_dec.exit32

lean_dec.exit32:                                  ; preds = %41, %40, %38, %lean_inc.exit
  %42 = add i64 %.02555, 1
  %43 = and i64 %33, 510
  %44 = icmp eq i64 %43, 0
  br i1 %44, label %45, label %53

45:                                               ; preds = %lean_dec.exit32
  br i1 %.not.i37, label %46, label %lean_dec.exit31

46:                                               ; preds = %45
  %47 = load i32, ptr %11, align 4, !tbaa !4
  %48 = icmp sgt i32 %47, 1
  br i1 %48, label %49, label %51, !prof !13

49:                                               ; preds = %46
  %50 = add nsw i32 %47, -1
  store i32 %50, ptr %11, align 4, !tbaa !4
  br label %lean_dec.exit31

51:                                               ; preds = %46
  %.not.i33 = icmp eq i32 %47, 0
  br i1 %.not.i33, label %lean_dec.exit31, label %52

52:                                               ; preds = %51
  tail call void @lean_dec_ref_cold(ptr noundef nonnull %11) #7
  br label %lean_dec.exit31

53:                                               ; preds = %lean_dec.exit32
  %54 = tail call ptr @lean_array_push(ptr noundef %.02754, ptr noundef %11) #7
  br label %lean_dec.exit31

._crit_edge:                                      ; preds = %lean_dec.exit31, %.._crit_edge_crit_edge
  %.pre-phi57 = phi i64 [ %.pre56, %.._crit_edge_crit_edge ], [ %8, %lean_dec.exit31 ]
  %.027.lcssa = phi ptr [ %4, %.._crit_edge_crit_edge ], [ %.229, %lean_dec.exit31 ]
  %.not49 = icmp eq i64 %.pre-phi57, 0
  br i1 %.not49, label %55, label %62

55:                                               ; preds = %._crit_edge
  %56 = load i32, ptr %0, align 4, !tbaa !4
  %57 = icmp sgt i32 %56, 1
  br i1 %57, label %58, label %60, !prof !13

58:                                               ; preds = %55
  %59 = add nsw i32 %56, -1
  store i32 %59, ptr %0, align 4, !tbaa !4
  br label %62

60:                                               ; preds = %55
  %.not.i35 = icmp eq i32 %56, 0
  br i1 %.not.i35, label %62, label %61

61:                                               ; preds = %60
  tail call void @lean_dec_ref_cold(ptr noundef nonnull %0) #7
  br label %62

lean_dec.exit31:                                  ; preds = %45, %49, %51, %52, %53
  %.229 = phi ptr [ %54, %53 ], [ %.02754, %52 ], [ %.02754, %51 ], [ %.02754, %49 ], [ %.02754, %45 ]
  %.not = icmp eq i64 %42, %3
  br i1 %.not, label %._crit_edge, label %9

62:                                               ; preds = %61, %60, %58, %._crit_edge
  ret ptr %.027.lcssa
}